(dp0
S'sys_7'
p1
Vdvz
p2
sS'sys_6'
p3
Vdist_ec_edep
p4
sS'sys_5'
p5
Vdist_ecw
p6
sS'sys_4'
p7
Vdist_ecsf
p8
sS'sys_3'
p9
Vdist_vz
p10
sS'sys_2'
p11
Vdist_dcr1
p12
sS'sys_1'
p13
Vdist_dcr3
p14
sS'sys_0'
p15
S'beam_pol'
p16
sS'sys_9'
p17
Valpha
p18
sS'sys_8'
p19
Vp_mes
p20
sS'sys_13'
p21
Vdist_ecv
p22
sS'sys_12'
p23
Vdist_cc
p24
sS'sys_11'
p25
Vdist_ecu
p26
sS'sys_10'
p27
Vmissing_mass
p28
s.