(dp0
S'sys_7'
p1
S'p_mes'
p2
sS'sys_6'
p3
S'dist_ec_edep'
p4
sS'sys_5'
p5
S'dist_cc'
p6
sS'sys_4'
p7
S'alpha'
p8
sS'sys_3'
p9
S'dist_ecu'
p10
sS'sys_2'
p11
S'dist_dcr1'
p12
sS'sys_1'
p13
S'dist_dcr3'
p14
sS'sys_0'
p15
S'beam_pol'
p16
sS'sys_9'
p17
S'dist_vz'
p18
sS'sys_8'
p19
S'dist_ecsf'
p20
sS'sys_11'
p21
S'dist_ecv'
p22
sS'sys_10'
p23
S'dist_ecw'
p24
s.